target datalayout = "e-m:e-p270:32:32-p271:32:32-p272:64:64-i64:64-i128:128-f80:128-n8:16:32:64-S128"
target triple = "x86_64-pc-linux-gnu"

%struct.AVFormatContext = type { ptr, ptr, ptr, ptr, ptr, i32, i32, ptr, i32, ptr, i32, ptr, ptr, i64, i64, i64, i32, i32, i32, i64, i64, ptr, i32, i32, ptr, i32, i32, i32, i32, ptr, i64, i32, i32, %struct.AVIOInterruptCB, i32, i32, i32, i32, i64, i32, i32, i32, i32, i32, i32, i32, i32, i32, i32, i32, i32, i64, i32, i32, i32, i32, i32, ptr, ptr, ptr, ptr, i32, ptr, ptr, ptr, ptr, i32, ptr, ptr, i64, ptr, ptr, ptr, i64 }
%struct.AVIOInterruptCB = type { ptr, ptr }
%struct.AVStream = type { ptr, i32, i32, ptr, ptr, %struct.AVRational, i64, i64, i64, i32, i32, %struct.AVRational, ptr, %struct.AVRational, %struct.AVPacket, i32, %struct.AVRational, i32 }
%struct.AVPacket = type { ptr, i64, i64, ptr, i32, i32, i32, ptr, i32, i64, i64, ptr, ptr, %struct.AVRational }
%struct.AVRational = type { i32, i32 }
%struct.AVCodecParameters = type { i32, i32, i32, ptr, i32, ptr, i32, i32, i64, i32, i32, i32, i32, i32, i32, %struct.AVRational, %struct.AVRational, i32, i32, i32, i32, i32, i32, i32, %struct.AVChannelLayout, i32, i32, i32, i32, i32, i32 }
%struct.AVChannelLayout = type { i32, i32, %union.anon, ptr }
%union.anon = type { i64 }

@.str.6 = private unnamed_addr constant [48 x i8] c"Currently only VP8, VP9 and AV1 are supported!\0A\00", align 1
@.str.7 = private unnamed_addr constant [15 x i8] c"vp9_superframe\00", align 1
@.str.8 = private unnamed_addr constant [13 x i8] c"av1_metadata\00", align 1
@.str.9 = private unnamed_addr constant [10 x i8] c"td=insert\00", align 1

; Function Attrs: nounwind uwtable
define internal i32 @ivf_init(ptr noundef %0) #0 {
  %2 = alloca i32, align 4
  %3 = alloca ptr, align 8
  %4 = alloca ptr, align 8
  %5 = alloca i32, align 4
  %6 = alloca i32, align 4
  %7 = alloca i32, align 4
  store ptr %0, ptr %3, align 8, !tbaa !4
  call void @llvm.lifetime.start.p0(i64 8, ptr %4) #4
  %8 = load ptr, ptr %3, align 8, !tbaa !4
  %9 = getelementptr inbounds nuw %struct.AVFormatContext, ptr %8, i32 0, i32 7
  %10 = load ptr, ptr %9, align 8, !tbaa !9
  %11 = getelementptr inbounds ptr, ptr %10, i64 0
  %12 = load ptr, ptr %11, align 8, !tbaa !26
  %13 = getelementptr inbounds nuw %struct.AVStream, ptr %12, i32 0, i32 3
  %14 = load ptr, ptr %13, align 8, !tbaa !28
  store ptr %14, ptr %4, align 8, !tbaa !35
  %15 = load ptr, ptr %4, align 8, !tbaa !35
  %16 = getelementptr inbounds nuw %struct.AVCodecParameters, ptr %15, i32 0, i32 1
  %17 = load i32, ptr %16, align 4, !tbaa !38
  %18 = icmp eq i32 %17, 225
  br i1 %18, label %31, label %19

19:                                               ; preds = %1
  %20 = load ptr, ptr %4, align 8, !tbaa !35
  %21 = getelementptr inbounds nuw %struct.AVCodecParameters, ptr %20, i32 0, i32 1
  %22 = load i32, ptr %21, align 4, !tbaa !38
  %23 = icmp eq i32 %22, 139
  br i1 %23, label %31, label %24

24:                                               ; preds = %19
  %25 = load ptr, ptr %4, align 8, !tbaa !35
  %26 = getelementptr inbounds nuw %struct.AVCodecParameters, ptr %25, i32 0, i32 1
  %27 = load i32, ptr %26, align 4, !tbaa !38
  %28 = icmp eq i32 %27, 167
  br i1 %28, label %31, label %29

29:                                               ; preds = %24
  %30 = load ptr, ptr %3, align 8, !tbaa !4
  call void (ptr, i32, ptr, ...) @av_log(ptr noundef %30, i32 noundef 16, ptr noundef @.str.6)
  store i32 -22, ptr %2, align 4
  store i32 1, ptr %5, align 4
  br label %73

31:                                               ; preds = %24, %19, %1
  %32 = load ptr, ptr %4, align 8, !tbaa !35
  %33 = getelementptr inbounds nuw %struct.AVCodecParameters, ptr %32, i32 0, i32 1
  %34 = load i32, ptr %33, align 4, !tbaa !38
  %35 = icmp eq i32 %34, 167
  br i1 %35, label %36, label %51

36:                                               ; preds = %31
  call void @llvm.lifetime.start.p0(i64 4, ptr %6) #4
  %37 = load ptr, ptr %3, align 8, !tbaa !4
  %38 = getelementptr inbounds nuw %struct.AVFormatContext, ptr %37, i32 0, i32 7
  %39 = load ptr, ptr %38, align 8, !tbaa !9
  %40 = getelementptr inbounds ptr, ptr %39, i64 0
  %41 = load ptr, ptr %40, align 8, !tbaa !26
  %42 = call i32 @ff_stream_add_bitstream_filter(ptr noundef %41, ptr noundef @.str.7, ptr noundef null)
  store i32 %42, ptr %6, align 4, !tbaa !62
  %43 = load i32, ptr %6, align 4, !tbaa !62
  %44 = icmp slt i32 %43, 0
  br i1 %44, label %45, label %47

45:                                               ; preds = %36
  %46 = load i32, ptr %6, align 4, !tbaa !62
  store i32 %46, ptr %2, align 4
  store i32 1, ptr %5, align 4
  br label %48

47:                                               ; preds = %36
  store i32 0, ptr %5, align 4
  br label %48

48:                                               ; preds = %47, %45
  call void @llvm.lifetime.end.p0(i64 4, ptr %6) #4
  %49 = load i32, ptr %5, align 4
  switch i32 %49, label %73 [
    i32 0, label %50
  ]

50:                                               ; preds = %48
  br label %72

51:                                               ; preds = %31
  %52 = load ptr, ptr %4, align 8, !tbaa !35
  %53 = getelementptr inbounds nuw %struct.AVCodecParameters, ptr %52, i32 0, i32 1
  %54 = load i32, ptr %53, align 4, !tbaa !38
  %55 = icmp eq i32 %54, 225
  br i1 %55, label %56, label %71

56:                                               ; preds = %51
  call void @llvm.lifetime.start.p0(i64 4, ptr %7) #4
  %57 = load ptr, ptr %3, align 8, !tbaa !4
  %58 = getelementptr inbounds nuw %struct.AVFormatContext, ptr %57, i32 0, i32 7
  %59 = load ptr, ptr %58, align 8, !tbaa !9
  %60 = getelementptr inbounds ptr, ptr %59, i64 0
  %61 = load ptr, ptr %60, align 8, !tbaa !26
  %62 = call i32 @ff_stream_add_bitstream_filter(ptr noundef %61, ptr noundef @.str.8, ptr noundef @.str.9)
  store i32 %62, ptr %7, align 4, !tbaa !62
  %63 = load i32, ptr %7, align 4, !tbaa !62
  %64 = icmp slt i32 %63, 0
  br i1 %64, label %65, label %67

65:                                               ; preds = %56
  %66 = load i32, ptr %7, align 4, !tbaa !62
  store i32 %66, ptr %2, align 4
  store i32 1, ptr %5, align 4
  br label %68

67:                                               ; preds = %56
  store i32 0, ptr %5, align 4
  br label %68

68:                                               ; preds = %67, %65
  call void @llvm.lifetime.end.p0(i64 4, ptr %7) #4
  %69 = load i32, ptr %5, align 4
  switch i32 %69, label %73 [
    i32 0, label %70
  ]

70:                                               ; preds = %68
  br label %71

71:                                               ; preds = %70, %51
  br label %72

72:                                               ; preds = %71, %50
  store i32 0, ptr %2, align 4
  store i32 1, ptr %5, align 4
  br label %73

73:                                               ; preds = %72, %68, %48, %29
  call void @llvm.lifetime.end.p0(i64 8, ptr %4) #4
  %74 = load i32, ptr %2, align 4
  ret i32 %74
}