; Function Attrs: nounwind uwtable
define internal range(i32 -2147483648, 1) i32 @ivf_init(ptr noundef %0) #0 {
  %2 = getelementptr inbounds nuw i8, ptr %0, i64 48
  %3 = load ptr, ptr %2, align 8, !tbaa !4
  %4 = load ptr, ptr %3, align 8, !tbaa !24
  %5 = getelementptr inbounds nuw i8, ptr %4, i64 16
  %6 = load ptr, ptr %5, align 8, !tbaa !26
  %7 = getelementptr inbounds nuw i8, ptr %6, i64 4
  %8 = load i32, ptr %7, align 4, !tbaa !34
  switch i32 %8, label %9 [
    i32 167, label %10
    i32 225, label %13
    i32 139, label %16
  ]

9:                                                ; preds = %1
  tail call void (ptr, i32, ptr, ...) @av_log(ptr noundef nonnull %0, i32 noundef 16, ptr noundef nonnull @.str.6) #2
  br label %17

10:                                               ; preds = %1
  %11 = tail call i32 @ff_stream_add_bitstream_filter(ptr noundef nonnull %4, ptr noundef nonnull @.str.7, ptr noundef null) #2
  %12 = icmp sgt i32 %11, -1
  br i1 %12, label %16, label %17

13:                                               ; preds = %1
  %14 = tail call i32 @ff_stream_add_bitstream_filter(ptr noundef nonnull %4, ptr noundef nonnull @.str.8, ptr noundef nonnull @.str.9) #2
  %15 = icmp sgt i32 %14, -1
  br i1 %15, label %16, label %17

16:                                               ; preds = %1, %13, %10
  br label %17

17:                                               ; preds = %10, %13, %16, %9
  %.0 = phi i32 [ 0, %16 ], [ %11, %10 ], [ %14, %13 ], [ -22, %9 ]
  ret i32 %.0
}